; Function Attrs: nounwind uwtable
define range(i32 -9, 1) i32 @IDASetPreconditioner(ptr noundef %0, ptr noundef %1, ptr noundef %2) local_unnamed_addr #0 {
  %4 = icmp eq ptr %0, null
  br i1 %4, label %5, label %6

5:                                                ; preds = %3
  tail call void (ptr, i32, i32, ptr, ptr, ptr, ...) @IDAProcessError(ptr noundef null, i32 noundef -1, i32 noundef 1766, ptr noundef nonnull @__func__.IDASetPreconditioner, ptr noundef nonnull @.str, ptr noundef nonnull @.str.1) #13
  br label %idaLs_AccessLMem.exit.thread

6:                                                ; preds = %3
  %7 = getelementptr inbounds nuw i8, ptr %0, i64 1048
  %8 = load ptr, ptr %7, align 8, !tbaa !65
  %9 = icmp eq ptr %8, null
  br i1 %9, label %10, label %idaLs_AccessLMem.exit

10:                                               ; preds = %6
  tail call void (ptr, i32, i32, ptr, ptr, ptr, ...) @IDAProcessError(ptr noundef nonnull %0, i32 noundef -2, i32 noundef 1773, ptr noundef nonnull @__func__.IDASetPreconditioner, ptr noundef nonnull @.str, ptr noundef nonnull @.str.30) #13
  br label %idaLs_AccessLMem.exit.thread

idaLs_AccessLMem.exit:                            ; preds = %6
  %11 = getelementptr inbounds nuw i8, ptr %8, i64 256
  store ptr %1, ptr %11, align 8, !tbaa !71
  %12 = getelementptr inbounds nuw i8, ptr %8, i64 264
  store ptr %2, ptr %12, align 8, !tbaa !108
  %13 = getelementptr inbounds nuw i8, ptr %8, i64 32
  %14 = load ptr, ptr %13, align 8, !tbaa !37
  %15 = getelementptr inbounds nuw i8, ptr %14, i64 8
  %16 = load ptr, ptr %15, align 8, !tbaa !3
  %17 = getelementptr inbounds nuw i8, ptr %16, i64 24
  %18 = load ptr, ptr %17, align 8, !tbaa !58
  %19 = icmp eq ptr %18, null
  br i1 %19, label %20, label %21

20:                                               ; preds = %idaLs_AccessLMem.exit
  tail call void (ptr, i32, i32, ptr, ptr, ptr, ...) @IDAProcessError(ptr noundef nonnull %0, i32 noundef -3, i32 noundef 448, ptr noundef nonnull @__func__.IDASetPreconditioner, ptr noundef nonnull @.str, ptr noundef nonnull @.str.16) #13
  br label %idaLs_AccessLMem.exit.thread

21:                                               ; preds = %idaLs_AccessLMem.exit
  %22 = icmp eq ptr %1, null
  %23 = select i1 %22, ptr null, ptr @idaLsPSetup
  %24 = icmp eq ptr %2, null
  %25 = select i1 %24, ptr null, ptr @idaLsPSolve
  %26 = tail call i32 @SUNLinSolSetPreconditioner(ptr noundef nonnull %14, ptr noundef nonnull %0, ptr noundef %23, ptr noundef %25) #13
  %.not11 = icmp eq i32 %26, 0
  br i1 %.not11, label %idaLs_AccessLMem.exit.thread, label %27

27:                                               ; preds = %21
  tail call void (ptr, i32, i32, ptr, ptr, ptr, ...) @IDAProcessError(ptr noundef nonnull %0, i32 noundef -9, i32 noundef 461, ptr noundef nonnull @__func__.IDASetPreconditioner, ptr noundef nonnull @.str, ptr noundef nonnull @.str.12) #13
  br label %idaLs_AccessLMem.exit.thread

idaLs_AccessLMem.exit.thread:                     ; preds = %10, %5, %21, %27, %20
  %.0 = phi i32 [ -3, %20 ], [ -9, %27 ], [ 0, %21 ], [ -2, %10 ], [ -1, %5 ]
  ret i32 %.0
}